target datalayout = "e-m:e-p270:32:32-p271:32:32-p272:64:64-i64:64-i128:128-f80:128-n8:16:32:64-S128"
target triple = "x86_64-pc-linux-gnu"

%struct.AVFilterContext = type { ptr, ptr, ptr, ptr, ptr, i32, ptr, ptr, i32, ptr, ptr, i32, i32, ptr, ptr, ptr, ptr, i32, ptr, i32, i32 }
%struct.ReadVitcContext = type { ptr, i32, double, double, i32, i32, i32, i32, [9 x i8], [23 x i8] }

@.str.17 = private unnamed_addr constant [70 x i8] c"Black color threshold is higher than white color threshold (%g > %g)\0A\00", align 1
@.str.18 = private unnamed_addr constant [57 x i8] c"threshold_black:%d threshold_white:%d threshold_gray:%d\0A\00", align 1

; Function Attrs: cold nounwind optsize uwtable
define internal i32 @init(ptr noundef %0) #0 {
  %2 = alloca i32, align 4
  %3 = alloca ptr, align 8
  %4 = alloca ptr, align 8
  %5 = alloca i32, align 4
  store ptr %0, ptr %3, align 8, !tbaa !4
  call void @llvm.lifetime.start.p0(i64 8, ptr %4) #7
  %6 = load ptr, ptr %3, align 8, !tbaa !4
  %7 = getelementptr inbounds nuw %struct.AVFilterContext, ptr %6, i32 0, i32 9
  %8 = load ptr, ptr %7, align 8, !tbaa !9
  store ptr %8, ptr %4, align 8, !tbaa !22
  %9 = load ptr, ptr %4, align 8, !tbaa !22
  %10 = getelementptr inbounds nuw %struct.ReadVitcContext, ptr %9, i32 0, i32 2
  %11 = load double, ptr %10, align 8, !tbaa !24
  %12 = fmul nsz double %11, 2.550000e+02
  %13 = fptosi double %12 to i32
  %14 = load ptr, ptr %4, align 8, !tbaa !22
  %15 = getelementptr inbounds nuw %struct.ReadVitcContext, ptr %14, i32 0, i32 4
  store i32 %13, ptr %15, align 8, !tbaa !27
  %16 = load ptr, ptr %4, align 8, !tbaa !22
  %17 = getelementptr inbounds nuw %struct.ReadVitcContext, ptr %16, i32 0, i32 3
  %18 = load double, ptr %17, align 8, !tbaa !28
  %19 = fmul nsz double %18, 2.550000e+02
  %20 = fptosi double %19 to i32
  %21 = load ptr, ptr %4, align 8, !tbaa !22
  %22 = getelementptr inbounds nuw %struct.ReadVitcContext, ptr %21, i32 0, i32 5
  store i32 %20, ptr %22, align 4, !tbaa !29
  %23 = load ptr, ptr %4, align 8, !tbaa !22
  %24 = getelementptr inbounds nuw %struct.ReadVitcContext, ptr %23, i32 0, i32 4
  %25 = load i32, ptr %24, align 8, !tbaa !27
  %26 = load ptr, ptr %4, align 8, !tbaa !22
  %27 = getelementptr inbounds nuw %struct.ReadVitcContext, ptr %26, i32 0, i32 5
  %28 = load i32, ptr %27, align 4, !tbaa !29
  %29 = icmp sgt i32 %25, %28
  br i1 %29, label %30, label %38

30:                                               ; preds = %1
  %31 = load ptr, ptr %3, align 8, !tbaa !4
  %32 = load ptr, ptr %4, align 8, !tbaa !22
  %33 = getelementptr inbounds nuw %struct.ReadVitcContext, ptr %32, i32 0, i32 2
  %34 = load double, ptr %33, align 8, !tbaa !24
  %35 = load ptr, ptr %4, align 8, !tbaa !22
  %36 = getelementptr inbounds nuw %struct.ReadVitcContext, ptr %35, i32 0, i32 3
  %37 = load double, ptr %36, align 8, !tbaa !28
  call void (ptr, i32, ptr, ...) @av_log(ptr noundef %31, i32 noundef 24, ptr noundef @.str.17, double noundef %34, double noundef %37)
  store i32 -22, ptr %2, align 4
  store i32 1, ptr %5, align 4
  br label %63

38:                                               ; preds = %1
  %39 = load ptr, ptr %4, align 8, !tbaa !22
  %40 = getelementptr inbounds nuw %struct.ReadVitcContext, ptr %39, i32 0, i32 5
  %41 = load i32, ptr %40, align 4, !tbaa !29
  %42 = load ptr, ptr %4, align 8, !tbaa !22
  %43 = getelementptr inbounds nuw %struct.ReadVitcContext, ptr %42, i32 0, i32 5
  %44 = load i32, ptr %43, align 4, !tbaa !29
  %45 = load ptr, ptr %4, align 8, !tbaa !22
  %46 = getelementptr inbounds nuw %struct.ReadVitcContext, ptr %45, i32 0, i32 4
  %47 = load i32, ptr %46, align 8, !tbaa !27
  %48 = sub nsw i32 %44, %47
  %49 = sdiv i32 %48, 2
  %50 = sub nsw i32 %41, %49
  %51 = load ptr, ptr %4, align 8, !tbaa !22
  %52 = getelementptr inbounds nuw %struct.ReadVitcContext, ptr %51, i32 0, i32 6
  store i32 %50, ptr %52, align 8, !tbaa !30
  %53 = load ptr, ptr %3, align 8, !tbaa !4
  %54 = load ptr, ptr %4, align 8, !tbaa !22
  %55 = getelementptr inbounds nuw %struct.ReadVitcContext, ptr %54, i32 0, i32 4
  %56 = load i32, ptr %55, align 8, !tbaa !27
  %57 = load ptr, ptr %4, align 8, !tbaa !22
  %58 = getelementptr inbounds nuw %struct.ReadVitcContext, ptr %57, i32 0, i32 5
  %59 = load i32, ptr %58, align 4, !tbaa !29
  %60 = load ptr, ptr %4, align 8, !tbaa !22
  %61 = getelementptr inbounds nuw %struct.ReadVitcContext, ptr %60, i32 0, i32 6
  %62 = load i32, ptr %61, align 8, !tbaa !30
  call void (ptr, i32, ptr, ...) @av_log(ptr noundef %53, i32 noundef 48, ptr noundef @.str.18, i32 noundef %56, i32 noundef %59, i32 noundef %62)
  store i32 0, ptr %2, align 4
  store i32 1, ptr %5, align 4
  br label %63

63:                                               ; preds = %38, %30
  call void @llvm.lifetime.end.p0(i64 8, ptr %4) #7
  %64 = load i32, ptr %2, align 4
  ret i32 %64
}