; Function Attrs: cold nounwind optsize uwtable
define internal range(i32 -22, 1) i32 @init(ptr noundef %0) #0 {
  %2 = getelementptr inbounds nuw i8, ptr %0, i64 72
  %3 = load ptr, ptr %2, align 8, !tbaa !4
  %4 = getelementptr inbounds nuw i8, ptr %3, i64 16
  %5 = load double, ptr %4, align 8, !tbaa !20
  %6 = fmul nsz double %5, 2.550000e+02
  %7 = fptosi double %6 to i32
  %8 = getelementptr inbounds nuw i8, ptr %3, i64 32
  store i32 %7, ptr %8, align 8, !tbaa !23
  %9 = getelementptr inbounds nuw i8, ptr %3, i64 24
  %10 = load double, ptr %9, align 8, !tbaa !24
  %11 = fmul nsz double %10, 2.550000e+02
  %12 = fptosi double %11 to i32
  %13 = getelementptr inbounds nuw i8, ptr %3, i64 36
  store i32 %12, ptr %13, align 4, !tbaa !25
  %14 = icmp sgt i32 %7, %12
  br i1 %14, label %15, label %16

15:                                               ; preds = %1
  tail call void (ptr, i32, ptr, ...) @av_log(ptr noundef nonnull %0, i32 noundef 24, ptr noundef nonnull @.str.17, double noundef %5, double noundef %10) #6
  br label %20

16:                                               ; preds = %1
  %17 = sub nsw i32 %12, %7
  %.neg = sdiv i32 %17, -2
  %18 = add i32 %.neg, %12
  %19 = getelementptr inbounds nuw i8, ptr %3, i64 40
  store i32 %18, ptr %19, align 8, !tbaa !26
  tail call void (ptr, i32, ptr, ...) @av_log(ptr noundef nonnull %0, i32 noundef 48, ptr noundef nonnull @.str.18, i32 noundef %7, i32 noundef %12, i32 noundef %18) #6
  br label %20

20:                                               ; preds = %16, %15
  %.0 = phi i32 [ -22, %15 ], [ 0, %16 ]
  ret i32 %.0
}